; Function Attrs: mustprogress nofree norecurse nosync nounwind willreturn memory(argmem: write) uwtable
define hidden void @_ZN10smt_params11setup_QF_BVEv(ptr nocapture noundef nonnull writeonly align 8 dereferenceable(800) %this) local_unnamed_addr #6 align 2 {
entry:
  %m_relevancy_lvl = getelementptr inbounds i8, ptr %this, i64 512
  store i32 0, ptr %m_relevancy_lvl, align 8
  %m_arith_reflect = getelementptr inbounds i8, ptr %this, i64 284
  store i8 0, ptr %m_arith_reflect, align 4
  %m_bv_cc = getelementptr inbounds i8, ptr %this, i64 427
  store i8 0, ptr %m_bv_cc, align 1
  %add.ptr3 = getelementptr inbounds i8, ptr %this, i64 38
  store i8 1, ptr %add.ptr3, align 2
  %m_nnf_cnf = getelementptr inbounds i8, ptr %this, i64 58
  store i8 0, ptr %m_nnf_cnf, align 2
  ret void
}